target datalayout = "e-m:e-p270:32:32-p271:32:32-p272:64:64-i64:64-i128:128-f80:128-n8:16:32:64-S128"
target triple = "x86_64-pc-linux-gnu"

%"class.icu_77::number::impl::DecNum" = type { %"class.icu_77::MaybeStackHeaderAndArray", %struct.decContext, [4 x i8] }
%"class.icu_77::MaybeStackHeaderAndArray" = type <{ ptr, i32, i8, [3 x i8], %struct.decNumber, [34 x i8], [2 x i8] }>
%struct.decNumber = type { i32, i32, i8, [1 x i8] }
%struct.decContext = type { i32, i32, i32, i32, i32, i32, i8 }

; Function Attrs: mustprogress uwtable
define linkonce_odr void @_ZN6icu_7724MaybeStackHeaderAndArrayI9decNumbercLi34EE13releaseMemoryEv(ptr noundef nonnull align 8 dereferenceable(62) %0) #1 comdat align 2 {
  %2 = alloca ptr, align 8
  store ptr %0, ptr %2, align 8, !tbaa !48
  %3 = load ptr, ptr %2, align 8
  %4 = getelementptr inbounds nuw %"class.icu_77::MaybeStackHeaderAndArray", ptr %3, i32 0, i32 2
  %5 = load i8, ptr %4, align 4, !tbaa !52
  %6 = icmp ne i8 %5, 0
  br i1 %6, label %7, label %10

7:                                                ; preds = %1
  %8 = getelementptr inbounds nuw %"class.icu_77::MaybeStackHeaderAndArray", ptr %3, i32 0, i32 0
  %9 = load ptr, ptr %8, align 8, !tbaa !50
  call void @uprv_free_77(ptr noundef %9)
  br label %10

10:                                               ; preds = %7, %1
  ret void
}

; Function Attrs: mustprogress nounwind uwtable
define linkonce_odr noundef ptr @_ZNK6icu_7724MaybeStackHeaderAndArrayI9decNumbercLi34EEcvPS1_Ev(ptr noundef nonnull align 8 dereferenceable(62) %0) #0 comdat align 2 {
  %2 = alloca ptr, align 8
  store ptr %0, ptr %2, align 8, !tbaa !48
  %3 = load ptr, ptr %2, align 8
  %4 = getelementptr inbounds nuw %"class.icu_77::MaybeStackHeaderAndArray", ptr %3, i32 0, i32 0
  %5 = load ptr, ptr %4, align 8, !tbaa !50
  ret ptr %5
}

; Function Attrs: mustprogress nounwind uwtable
define linkonce_odr noundef ptr @_ZNK6icu_7724MaybeStackHeaderAndArrayI9decNumbercLi34EE8getAliasEv(ptr noundef nonnull align 8 dereferenceable(62) %0) #0 comdat align 2 {
  %2 = alloca ptr, align 8
  store ptr %0, ptr %2, align 8, !tbaa !48
  %3 = load ptr, ptr %2, align 8
  %4 = getelementptr inbounds nuw %"class.icu_77::MaybeStackHeaderAndArray", ptr %3, i32 0, i32 0
  %5 = load ptr, ptr %4, align 8, !tbaa !50
  ret ptr %5
}

; Function Attrs: inlinehint mustprogress uwtable
define linkonce_odr noundef ptr @_ZN6icu_7724MaybeStackHeaderAndArrayI9decNumbercLi34EE6resizeEii(ptr noundef nonnull align 8 dereferenceable(62) %0, i32 noundef %1, i32 noundef %2) #3 comdat align 2 {
  %4 = alloca ptr, align 8
  %5 = alloca ptr, align 8
  %6 = alloca i32, align 4
  %7 = alloca i32, align 4
  %8 = alloca ptr, align 8
  store ptr %0, ptr %5, align 8, !tbaa !48
  store i32 %1, ptr %6, align 4, !tbaa !14
  store i32 %2, ptr %7, align 4, !tbaa !14
  %9 = load ptr, ptr %5, align 8
  %10 = load i32, ptr %6, align 4, !tbaa !14
  %11 = icmp sge i32 %10, 0
  br i1 %11, label %12, label %61

12:                                               ; preds = %3
  call void @llvm.lifetime.start.p0(i64 8, ptr %8) #12
  %13 = load i32, ptr %6, align 4, !tbaa !14
  %14 = sext i32 %13 to i64
  %15 = mul i64 %14, 1
  %16 = add i64 12, %15
  %17 = call noalias ptr @uprv_malloc_77(i64 noundef %16) #13
  store ptr %17, ptr %8, align 8, !tbaa !22
  %18 = load ptr, ptr %8, align 8, !tbaa !22
  %19 = icmp ne ptr %18, null
  br i1 %19, label %20, label %59

20:                                               ; preds = %12
  %21 = load i32, ptr %7, align 4, !tbaa !14
  %22 = icmp slt i32 %21, 0
  br i1 %22, label %23, label %24

23:                                               ; preds = %20
  store i32 0, ptr %7, align 4, !tbaa !14
  br label %43

24:                                               ; preds = %20
  %25 = load i32, ptr %7, align 4, !tbaa !14
  %26 = icmp sgt i32 %25, 0
  br i1 %26, label %27, label %42

27:                                               ; preds = %24
  %28 = load i32, ptr %7, align 4, !tbaa !14
  %29 = getelementptr inbounds nuw %"class.icu_77::MaybeStackHeaderAndArray", ptr %9, i32 0, i32 1
  %30 = load i32, ptr %29, align 8, !tbaa !51
  %31 = icmp sgt i32 %28, %30
  br i1 %31, label %32, label %35

32:                                               ; preds = %27
  %33 = getelementptr inbounds nuw %"class.icu_77::MaybeStackHeaderAndArray", ptr %9, i32 0, i32 1
  %34 = load i32, ptr %33, align 8, !tbaa !51
  store i32 %34, ptr %7, align 4, !tbaa !14
  br label %35

35:                                               ; preds = %32, %27
  %36 = load i32, ptr %7, align 4, !tbaa !14
  %37 = load i32, ptr %6, align 4, !tbaa !14
  %38 = icmp sgt i32 %36, %37
  br i1 %38, label %39, label %41

39:                                               ; preds = %35
  %40 = load i32, ptr %6, align 4, !tbaa !14
  store i32 %40, ptr %7, align 4, !tbaa !14
  br label %41

41:                                               ; preds = %39, %35
  br label %42

42:                                               ; preds = %41, %24
  br label %43

43:                                               ; preds = %42, %23
  br label %44

44:                                               ; preds = %43
  %45 = load ptr, ptr %8, align 8, !tbaa !22
  %46 = getelementptr inbounds nuw %"class.icu_77::MaybeStackHeaderAndArray", ptr %9, i32 0, i32 0
  %47 = load ptr, ptr %46, align 8, !tbaa !50
  %48 = load i32, ptr %7, align 4, !tbaa !14
  %49 = sext i32 %48 to i64
  %50 = mul i64 %49, 1
  %51 = add i64 12, %50
  call void @llvm.memcpy.p0.p0.i64(ptr align 4 %45, ptr align 4 %47, i64 %51, i1 false)
  br label %52

52:                                               ; preds = %44
  br label %53

53:                                               ; preds = %52
  call void @_ZN6icu_7724MaybeStackHeaderAndArrayI9decNumbercLi34EE13releaseMemoryEv(ptr noundef nonnull align 8 dereferenceable(62) %9)
  %54 = load ptr, ptr %8, align 8, !tbaa !22
  %55 = getelementptr inbounds nuw %"class.icu_77::MaybeStackHeaderAndArray", ptr %9, i32 0, i32 0
  store ptr %54, ptr %55, align 8, !tbaa !50
  %56 = load i32, ptr %6, align 4, !tbaa !14
  %57 = getelementptr inbounds nuw %"class.icu_77::MaybeStackHeaderAndArray", ptr %9, i32 0, i32 1
  store i32 %56, ptr %57, align 8, !tbaa !51
  %58 = getelementptr inbounds nuw %"class.icu_77::MaybeStackHeaderAndArray", ptr %9, i32 0, i32 2
  store i8 1, ptr %58, align 4, !tbaa !52
  br label %59

59:                                               ; preds = %53, %12
  %60 = load ptr, ptr %8, align 8, !tbaa !22
  store ptr %60, ptr %4, align 8
  call void @llvm.lifetime.end.p0(i64 8, ptr %8) #12
  br label %62

61:                                               ; preds = %3
  store ptr null, ptr %4, align 8
  br label %62

62:                                               ; preds = %61, %59
  %63 = load ptr, ptr %4, align 8
  ret ptr %63
}

; Function Attrs: mustprogress uwtable
define void @_ZN6icu_776number4impl6DecNum5setToEPKhiibR10UErrorCode(ptr noundef nonnull align 8 dereferenceable(92) %0, ptr noundef %1, i32 noundef %2, i32 noundef %3, i1 noundef zeroext %4, ptr noundef nonnull align 4 dereferenceable(4) %5) #1 align 2 {
  %7 = alloca ptr, align 8
  %8 = alloca ptr, align 8
  %9 = alloca i32, align 4
  %10 = alloca i32, align 4
  %11 = alloca i8, align 1
  %12 = alloca ptr, align 8
  store ptr %0, ptr %7, align 8, !tbaa !40
  store ptr %1, ptr %8, align 8, !tbaa !17
  store i32 %2, ptr %9, align 4, !tbaa !14
  store i32 %3, ptr %10, align 4, !tbaa !14
  %13 = zext i1 %4 to i8
  store i8 %13, ptr %11, align 1, !tbaa !70
  store ptr %5, ptr %12, align 8, !tbaa !22
  %14 = load ptr, ptr %7, align 8
  %15 = load i32, ptr %9, align 4, !tbaa !14
  %16 = icmp sgt i32 %15, 34
  br i1 %16, label %17, label %24

17:                                               ; preds = %6
  %18 = getelementptr inbounds nuw %"class.icu_77::number::impl::DecNum", ptr %14, i32 0, i32 0
  %19 = load i32, ptr %9, align 4, !tbaa !14
  %20 = call noundef ptr @_ZN6icu_7724MaybeStackHeaderAndArrayI9decNumbercLi34EE6resizeEii(ptr noundef nonnull align 8 dereferenceable(62) %18, i32 noundef %19, i32 noundef 0)
  %21 = load i32, ptr %9, align 4, !tbaa !14
  %22 = getelementptr inbounds nuw %"class.icu_77::number::impl::DecNum", ptr %14, i32 0, i32 1
  %23 = getelementptr inbounds nuw %struct.decContext, ptr %22, i32 0, i32 0
  store i32 %21, ptr %23, align 8, !tbaa !56
  br label %27

24:                                               ; preds = %6
  %25 = getelementptr inbounds nuw %"class.icu_77::number::impl::DecNum", ptr %14, i32 0, i32 1
  %26 = getelementptr inbounds nuw %struct.decContext, ptr %25, i32 0, i32 0
  store i32 34, ptr %26, align 8, !tbaa !56
  br label %27

27:                                               ; preds = %24, %17
  %28 = load i32, ptr %9, align 4, !tbaa !14
  %29 = icmp slt i32 %28, 1
  br i1 %29, label %33, label %30

30:                                               ; preds = %27
  %31 = load i32, ptr %9, align 4, !tbaa !14
  %32 = icmp sgt i32 %31, 999999999
  br i1 %32, label %33, label %35

33:                                               ; preds = %30, %27
  %34 = load ptr, ptr %12, align 8, !tbaa !22
  store i32 16, ptr %34, align 4, !tbaa !15
  br label %76

35:                                               ; preds = %30
  %36 = load i32, ptr %10, align 4, !tbaa !14
  %37 = load i32, ptr %9, align 4, !tbaa !14
  %38 = sub nsw i32 999999999, %37
  %39 = add nsw i32 %38, 1
  %40 = icmp sgt i32 %36, %39
  br i1 %40, label %47, label %41

41:                                               ; preds = %35
  %42 = load i32, ptr %10, align 4, !tbaa !14
  %43 = load i32, ptr %9, align 4, !tbaa !14
  %44 = sub nsw i32 -999999999, %43
  %45 = add nsw i32 %44, 1
  %46 = icmp slt i32 %42, %45
  br i1 %46, label %47, label %49

47:                                               ; preds = %41, %35
  %48 = load ptr, ptr %12, align 8, !tbaa !22
  store i32 16, ptr %48, align 4, !tbaa !15
  br label %76

49:                                               ; preds = %41
  %50 = load i32, ptr %9, align 4, !tbaa !14
  %51 = getelementptr inbounds nuw %"class.icu_77::number::impl::DecNum", ptr %14, i32 0, i32 0
  %52 = call noundef ptr @_ZNK6icu_7724MaybeStackHeaderAndArrayI9decNumbercLi34EE8getAliasEv(ptr noundef nonnull align 8 dereferenceable(62) %51)
  %53 = getelementptr inbounds nuw %struct.decNumber, ptr %52, i32 0, i32 0
  store i32 %50, ptr %53, align 4, !tbaa !72
  %54 = load i32, ptr %10, align 4, !tbaa !14
  %55 = getelementptr inbounds nuw %"class.icu_77::number::impl::DecNum", ptr %14, i32 0, i32 0
  %56 = call noundef ptr @_ZNK6icu_7724MaybeStackHeaderAndArrayI9decNumbercLi34EE8getAliasEv(ptr noundef nonnull align 8 dereferenceable(62) %55)
  %57 = getelementptr inbounds nuw %struct.decNumber, ptr %56, i32 0, i32 1
  store i32 %54, ptr %57, align 4, !tbaa !68
  %58 = load i8, ptr %11, align 1, !tbaa !70, !range !73, !noundef !74
  %59 = trunc i8 %58 to i1
  %60 = select i1 %59, i32 128, i32 0
  %61 = trunc i32 %60 to i8
  %62 = getelementptr inbounds nuw %"class.icu_77::number::impl::DecNum", ptr %14, i32 0, i32 0
  %63 = call noundef ptr @_ZNK6icu_7724MaybeStackHeaderAndArrayI9decNumbercLi34EE8getAliasEv(ptr noundef nonnull align 8 dereferenceable(62) %62)
  %64 = getelementptr inbounds nuw %struct.decNumber, ptr %63, i32 0, i32 2
  store i8 %61, ptr %64, align 4, !tbaa !69
  %65 = getelementptr inbounds nuw %"class.icu_77::number::impl::DecNum", ptr %14, i32 0, i32 0
  %66 = call noundef ptr @_ZNK6icu_7724MaybeStackHeaderAndArrayI9decNumbercLi34EEcvPS1_Ev(ptr noundef nonnull align 8 dereferenceable(62) %65)
  %67 = load ptr, ptr %8, align 8, !tbaa !17
  %68 = load i32, ptr %9, align 4, !tbaa !14
  %69 = call ptr @uprv_decNumberSetBCD_77(ptr noundef %66, ptr noundef %67, i32 noundef %68)
  %70 = getelementptr inbounds nuw %"class.icu_77::number::impl::DecNum", ptr %14, i32 0, i32 1
  %71 = getelementptr inbounds nuw %struct.decContext, ptr %70, i32 0, i32 5
  %72 = load i32, ptr %71, align 4, !tbaa !61
  %73 = icmp ne i32 %72, 0
  br i1 %73, label %74, label %76

74:                                               ; preds = %49
  %75 = load ptr, ptr %12, align 8, !tbaa !22
  store i32 5, ptr %75, align 4, !tbaa !15
  br label %76

76:                                               ; preds = %33, %47, %74, %49
  ret void
}