; Function Attrs: mustprogress uwtable
define void @_ZN6icu_776number4impl6DecNum5setToEPKhiibR10UErrorCode(ptr noundef nonnull align 8 captures(none) dereferenceable(92) initializes((64, 68)) %0, ptr noundef %1, i32 noundef %2, i32 noundef %3, i1 noundef zeroext %4, ptr noundef nonnull writeonly align 4 captures(none) dereferenceable(4) %5) local_unnamed_addr #1 align 2 {
  %7 = icmp sgt i32 %2, 34
  br i1 %7, label %8, label %_ZN6icu_7724MaybeStackHeaderAndArrayI9decNumbercLi34EE6resizeEii.exit

8:                                                ; preds = %6
  %narrow.i = add nuw i32 %2, 12
  %9 = zext i32 %narrow.i to i64
  %10 = tail call noalias ptr @uprv_malloc_77(i64 noundef %9) #15
  %.not.i = icmp eq ptr %10, null
  br i1 %.not.i, label %_ZN6icu_7724MaybeStackHeaderAndArrayI9decNumbercLi34EE6resizeEii.exit, label %11

11:                                               ; preds = %8
  %12 = load ptr, ptr %0, align 8, !tbaa !24
  tail call void @llvm.memcpy.p0.p0.i64(ptr noundef nonnull align 4 dereferenceable(12) %10, ptr noundef nonnull align 4 dereferenceable(12) %12, i64 12, i1 false)
  %13 = getelementptr inbounds nuw i8, ptr %0, i64 12
  %14 = load i8, ptr %13, align 4, !tbaa !28
  %.not.i.i = icmp eq i8 %14, 0
  br i1 %.not.i.i, label %_ZN6icu_7724MaybeStackHeaderAndArrayI9decNumbercLi34EE13releaseMemoryEv.exit.i, label %15

15:                                               ; preds = %11
  tail call void @uprv_free_77(ptr noundef nonnull %12)
  br label %_ZN6icu_7724MaybeStackHeaderAndArrayI9decNumbercLi34EE13releaseMemoryEv.exit.i

_ZN6icu_7724MaybeStackHeaderAndArrayI9decNumbercLi34EE13releaseMemoryEv.exit.i: ; preds = %15, %11
  store ptr %10, ptr %0, align 8, !tbaa !24
  %16 = getelementptr inbounds nuw i8, ptr %0, i64 8
  store i32 %2, ptr %16, align 8, !tbaa !27
  store i8 1, ptr %13, align 4, !tbaa !28
  br label %_ZN6icu_7724MaybeStackHeaderAndArrayI9decNumbercLi34EE6resizeEii.exit

_ZN6icu_7724MaybeStackHeaderAndArrayI9decNumbercLi34EE6resizeEii.exit: ; preds = %6, %_ZN6icu_7724MaybeStackHeaderAndArrayI9decNumbercLi34EE13releaseMemoryEv.exit.i, %8
  %.sink = phi i32 [ %2, %8 ], [ %2, %_ZN6icu_7724MaybeStackHeaderAndArrayI9decNumbercLi34EE13releaseMemoryEv.exit.i ], [ 34, %6 ]
  %17 = getelementptr inbounds nuw i8, ptr %0, i64 64
  store i32 %.sink, ptr %17, align 8, !tbaa !35
  %18 = add i32 %2, -1000000000
  %or.cond = icmp ult i32 %18, -999999999
  br i1 %or.cond, label %.sink.split, label %19

19:                                               ; preds = %_ZN6icu_7724MaybeStackHeaderAndArrayI9decNumbercLi34EE6resizeEii.exit
  %20 = sub nuw nsw i32 1000000000, %2
  %21 = icmp sgt i32 %3, %20
  %22 = sub nuw nsw i32 -999999998, %2
  %23 = icmp slt i32 %3, %22
  %or.cond20 = select i1 %21, i1 true, i1 %23
  br i1 %or.cond20, label %.sink.split, label %24

24:                                               ; preds = %19
  %25 = load ptr, ptr %0, align 8, !tbaa !24
  store i32 %2, ptr %25, align 4, !tbaa !39
  %26 = getelementptr inbounds nuw i8, ptr %25, i64 4
  store i32 %3, ptr %26, align 4, !tbaa !37
  %27 = select i1 %4, i8 -128, i8 0
  %28 = getelementptr inbounds nuw i8, ptr %25, i64 8
  store i8 %27, ptr %28, align 4, !tbaa !38
  %29 = tail call ptr @uprv_decNumberSetBCD_77(ptr noundef nonnull %25, ptr noundef %1, i32 noundef %2)
  %30 = getelementptr inbounds nuw i8, ptr %0, i64 84
  %31 = load i32, ptr %30, align 4, !tbaa !36
  %.not = icmp eq i32 %31, 0
  br i1 %.not, label %32, label %.sink.split

.sink.split:                                      ; preds = %24, %19, %_ZN6icu_7724MaybeStackHeaderAndArrayI9decNumbercLi34EE6resizeEii.exit
  %.sink22 = phi i32 [ 16, %_ZN6icu_7724MaybeStackHeaderAndArrayI9decNumbercLi34EE6resizeEii.exit ], [ 16, %19 ], [ 5, %24 ]
  store i32 %.sink22, ptr %5, align 4, !tbaa !13
  br label %32

32:                                               ; preds = %.sink.split, %24
  ret void
}